; Function Attrs: mustprogress uwtable
define internal void @_ZN12_GLOBAL__N_120act_case_split_queue15unassign_var_ehEj(ptr noundef nonnull align 8 dereferenceable(48) %this, i32 noundef %v) unnamed_addr #3 align 2 {
entry:
  %m_queue = getelementptr inbounds i8, ptr %this, i64 24
  %0 = getelementptr inbounds i8, ptr %this, i64 40
  %m_queue.val = load ptr, ptr %0, align 8
  %cmp.i.i = icmp eq ptr %m_queue.val, null
  br i1 %cmp.i.i, label %_ZNK6vectorIiLb0EjE4sizeEv.exit.i, label %if.end.i.i

if.end.i.i:                                       ; preds = %entry
  %arrayidx.i.i = getelementptr inbounds i8, ptr %m_queue.val, i64 -4
  %1 = load i32, ptr %arrayidx.i.i, align 4
  br label %_ZNK6vectorIiLb0EjE4sizeEv.exit.i

_ZNK6vectorIiLb0EjE4sizeEv.exit.i:                ; preds = %if.end.i.i, %entry
  %retval.0.i.i = phi i32 [ %1, %if.end.i.i ], [ 0, %entry ]
  %cmp.i = icmp sgt i32 %retval.0.i.i, %v
  br i1 %cmp.i, label %_ZNK4heapIN12_GLOBAL__N_115bool_var_act_ltEE8containsEi.exit, label %if.then

_ZNK4heapIN12_GLOBAL__N_115bool_var_act_ltEE8containsEi.exit: ; preds = %_ZNK6vectorIiLb0EjE4sizeEv.exit.i
  %idxprom.i.i = zext i32 %v to i64
  %arrayidx.i2.i = getelementptr inbounds i32, ptr %m_queue.val, i64 %idxprom.i.i
  %2 = load i32, ptr %arrayidx.i2.i, align 4
  %cmp4.i.not = icmp eq i32 %2, 0
  br i1 %cmp4.i.not, label %if.then, label %if.end

if.then:                                          ; preds = %_ZNK6vectorIiLb0EjE4sizeEv.exit.i, %_ZNK4heapIN12_GLOBAL__N_115bool_var_act_ltEE8containsEi.exit
  %m_values.i = getelementptr inbounds i8, ptr %this, i64 32
  %3 = load ptr, ptr %m_values.i, align 8
  %cmp.i.i2 = icmp eq ptr %3, null
  br i1 %cmp.i.i2, label %_ZNK6vectorIiLb0EjE4sizeEv.exit.i5, label %if.end.i.i3

if.end.i.i3:                                      ; preds = %if.then
  %arrayidx.i.i4 = getelementptr inbounds i8, ptr %3, i64 -4
  %4 = load i32, ptr %arrayidx.i.i4, align 4
  br label %_ZNK6vectorIiLb0EjE4sizeEv.exit.i5

_ZNK6vectorIiLb0EjE4sizeEv.exit.i5:               ; preds = %if.end.i.i3, %if.then
  %retval.0.i.i6 = phi i32 [ %4, %if.end.i.i3 ], [ 0, %if.then ]
  %idxprom.i.i7 = zext i32 %v to i64
  %arrayidx.i2.i8 = getelementptr inbounds i32, ptr %m_queue.val, i64 %idxprom.i.i7
  store i32 %retval.0.i.i6, ptr %arrayidx.i2.i8, align 4
  %5 = load ptr, ptr %m_values.i, align 8
  %cmp.i3.i = icmp eq ptr %5, null
  br i1 %cmp.i3.i, label %if.then.i.i, label %lor.lhs.false.i.i

lor.lhs.false.i.i:                                ; preds = %_ZNK6vectorIiLb0EjE4sizeEv.exit.i5
  %arrayidx.i4.i = getelementptr inbounds i8, ptr %5, i64 -4
  %6 = load i32, ptr %arrayidx.i4.i, align 4
  %arrayidx4.i.i = getelementptr inbounds i8, ptr %5, i64 -8
  %7 = load i32, ptr %arrayidx4.i.i, align 4
  %cmp5.i.i = icmp eq i32 %6, %7
  br i1 %cmp5.i.i, label %if.then.i.i, label %_ZN6vectorIiLb0EjE9push_backERKi.exit.i

if.then.i.i:                                      ; preds = %lor.lhs.false.i.i, %_ZNK6vectorIiLb0EjE4sizeEv.exit.i5
  tail call void @_ZN6vectorIiLb0EjE13expand_vectorEv(ptr noundef nonnull align 8 dereferenceable(8) %m_values.i)
  %.pre.i.i = load ptr, ptr %m_values.i, align 8
  %arrayidx8.phi.trans.insert.i.i = getelementptr inbounds i8, ptr %.pre.i.i, i64 -4
  %.pre1.i.i = load i32, ptr %arrayidx8.phi.trans.insert.i.i, align 4
  br label %_ZN6vectorIiLb0EjE9push_backERKi.exit.i

_ZN6vectorIiLb0EjE9push_backERKi.exit.i:          ; preds = %if.then.i.i, %lor.lhs.false.i.i
  %8 = phi i32 [ %.pre1.i.i, %if.then.i.i ], [ %6, %lor.lhs.false.i.i ]
  %9 = phi ptr [ %.pre.i.i, %if.then.i.i ], [ %5, %lor.lhs.false.i.i ]
  %idx.ext.i.i = zext i32 %8 to i64
  %add.ptr.i.i = getelementptr inbounds i32, ptr %9, i64 %idx.ext.i.i
  store i32 %v, ptr %add.ptr.i.i, align 4
  %10 = load ptr, ptr %m_values.i, align 8
  %arrayidx10.i.i = getelementptr inbounds i8, ptr %10, i64 -4
  %11 = load i32, ptr %arrayidx10.i.i, align 4
  %inc.i.i = add i32 %11, 1
  store i32 %inc.i.i, ptr %arrayidx10.i.i, align 4
  %12 = load ptr, ptr %m_values.i, align 8
  %idxprom.i.i.i = zext i32 %retval.0.i.i6 to i64
  %arrayidx.i.i.i = getelementptr inbounds i32, ptr %12, i64 %idxprom.i.i.i
  %13 = load i32, ptr %arrayidx.i.i.i, align 4
  %cmp27.i.i = icmp ult i32 %retval.0.i.i6, 2
  %.pre34.i.i = zext i32 %13 to i64
  br i1 %cmp27.i.i, label %_ZN4heapIN12_GLOBAL__N_115bool_var_act_ltEE6insertEi.exit, label %lor.lhs.false.i6.i

lor.lhs.false.i6.i:                               ; preds = %_ZN6vectorIiLb0EjE9push_backERKi.exit.i, %if.end.i7.i
  %idx.addr.028.i.i = phi i32 [ %shr.i29.i.i, %if.end.i7.i ], [ %retval.0.i.i6, %_ZN6vectorIiLb0EjE9push_backERKi.exit.i ]
  %shr.i29.i.i = ashr i32 %idx.addr.028.i.i, 1
  %14 = load ptr, ptr %m_values.i, align 8
  %idxprom.i12.i.i = zext i32 %shr.i29.i.i to i64
  %arrayidx.i13.i.i = getelementptr inbounds i32, ptr %14, i64 %idxprom.i12.i.i
  %15 = load i32, ptr %arrayidx.i13.i.i, align 4
  %this.val.i.i = load ptr, ptr %m_queue, align 8
  %this.val.val.i.i = load ptr, ptr %this.val.i.i, align 8
  %arrayidx.i.i.i.i.i = getelementptr inbounds double, ptr %this.val.val.i.i, i64 %.pre34.i.i
  %16 = load double, ptr %arrayidx.i.i.i.i.i, align 8
  %idxprom.i1.i.i.i.i = zext i32 %15 to i64
  %arrayidx.i2.i.i.i.i = getelementptr inbounds double, ptr %this.val.val.i.i, i64 %idxprom.i1.i.i.i.i
  %17 = load double, ptr %arrayidx.i2.i.i.i.i, align 8
  %cmp.i.i.i.i = fcmp ogt double %16, %17
  %idxprom.i16.i.i = zext i32 %idx.addr.028.i.i to i64
  br i1 %cmp.i.i.i.i, label %if.end.i7.i, label %_ZN4heapIN12_GLOBAL__N_115bool_var_act_ltEE6insertEi.exit

if.end.i7.i:                                      ; preds = %lor.lhs.false.i6.i
  %arrayidx.i17.i.i = getelementptr inbounds i32, ptr %14, i64 %idxprom.i16.i.i
  store i32 %15, ptr %arrayidx.i17.i.i, align 4
  %18 = load ptr, ptr %m_values.i, align 8
  %arrayidx.i19.i.i = getelementptr inbounds i32, ptr %18, i64 %idxprom.i16.i.i
  %19 = load i32, ptr %arrayidx.i19.i.i, align 4
  %20 = load ptr, ptr %0, align 8
  %idxprom.i20.i.i = zext i32 %19 to i64
  %arrayidx.i21.i.i = getelementptr inbounds i32, ptr %20, i64 %idxprom.i20.i.i
  store i32 %idx.addr.028.i.i, ptr %arrayidx.i21.i.i, align 4
  %cmp.i8.i = icmp ult i32 %shr.i29.i.i, 2
  br i1 %cmp.i8.i, label %if.end.while.end.loopexit_crit_edge.i.i, label %lor.lhs.false.i6.i, !llvm.loop !7

if.end.while.end.loopexit_crit_edge.i.i:          ; preds = %if.end.i7.i
  %.pre.pre.i.i = load ptr, ptr %m_values.i, align 8
  br label %_ZN4heapIN12_GLOBAL__N_115bool_var_act_ltEE6insertEi.exit

_ZN4heapIN12_GLOBAL__N_115bool_var_act_ltEE6insertEi.exit: ; preds = %lor.lhs.false.i6.i, %_ZN6vectorIiLb0EjE9push_backERKi.exit.i, %if.end.while.end.loopexit_crit_edge.i.i
  %idxprom.i22.pre-phi.i.i = phi i64 [ %idxprom.i12.i.i, %if.end.while.end.loopexit_crit_edge.i.i ], [ %idxprom.i.i.i, %_ZN6vectorIiLb0EjE9push_backERKi.exit.i ], [ %idxprom.i16.i.i, %lor.lhs.false.i6.i ]
  %21 = phi ptr [ %.pre.pre.i.i, %if.end.while.end.loopexit_crit_edge.i.i ], [ %12, %_ZN6vectorIiLb0EjE9push_backERKi.exit.i ], [ %14, %lor.lhs.false.i6.i ]
  %idx.addr.0.lcssa.i.i = phi i32 [ %shr.i29.i.i, %if.end.while.end.loopexit_crit_edge.i.i ], [ %retval.0.i.i6, %_ZN6vectorIiLb0EjE9push_backERKi.exit.i ], [ %idx.addr.028.i.i, %lor.lhs.false.i6.i ]
  %arrayidx.i23.i.i = getelementptr inbounds i32, ptr %21, i64 %idxprom.i22.pre-phi.i.i
  store i32 %13, ptr %arrayidx.i23.i.i, align 4
  %22 = load ptr, ptr %0, align 8
  %arrayidx.i25.i.i = getelementptr inbounds i32, ptr %22, i64 %.pre34.i.i
  store i32 %idx.addr.0.lcssa.i.i, ptr %arrayidx.i25.i.i, align 4
  br label %if.end

if.end:                                           ; preds = %_ZN4heapIN12_GLOBAL__N_115bool_var_act_ltEE6insertEi.exit, %_ZNK4heapIN12_GLOBAL__N_115bool_var_act_ltEE8containsEi.exit
  ret void
}